; Function Attrs: mustprogress uwtable
define void @_ZN9grpc_core12experimental19AuditLoggerRegistry21TestOnlyResetRegistryEv() local_unnamed_addr #5 align 2 personality ptr @__gxx_personality_v0 {
entry:
  %0 = load ptr, ptr @_ZN9grpc_core12experimental19AuditLoggerRegistry2muE, align 8
  tail call void @_ZN4absl12lts_202308025Mutex4LockEv(ptr noundef nonnull align 8 dereferenceable(8) %0)
  %1 = load ptr, ptr @_ZN9grpc_core12experimental19AuditLoggerRegistry8registryE, align 8
  %isnull = icmp eq ptr %1, null
  br i1 %isnull, label %delete.end, label %delete.notnull

delete.notnull:                                   ; preds = %entry
  %_M_parent.i.i.i.i.i = getelementptr inbounds i8, ptr %1, i64 16
  %2 = load ptr, ptr %_M_parent.i.i.i.i.i, align 8
  invoke void @_ZNSt8_Rb_treeISt17basic_string_viewIcSt11char_traitsIcEESt4pairIKS3_St10unique_ptrIN9grpc_core12experimental18AuditLoggerFactoryESt14default_deleteIS9_EEESt10_Select1stISD_ESt4lessIS3_ESaISD_EE8_M_eraseEPSt13_Rb_tree_nodeISD_E(ptr noundef nonnull align 8 dereferenceable(48) %1, ptr noundef %2)
          to label %_ZN9grpc_core12experimental19AuditLoggerRegistryD2Ev.exit unwind label %terminate.lpad.i.i.i

terminate.lpad.i.i.i:                             ; preds = %delete.notnull
  %3 = landingpad { ptr, i32 }
          catch ptr null
  %4 = extractvalue { ptr, i32 } %3, 0
  tail call void @__clang_call_terminate(ptr %4) #19
  unreachable

_ZN9grpc_core12experimental19AuditLoggerRegistryD2Ev.exit: ; preds = %delete.notnull
  tail call void @_ZdlPv(ptr noundef nonnull %1) #20
  br label %delete.end

delete.end:                                       ; preds = %_ZN9grpc_core12experimental19AuditLoggerRegistryD2Ev.exit, %entry
  %call = invoke noalias noundef nonnull dereferenceable(48) ptr @_Znwm(i64 noundef 48) #16
          to label %invoke.cont unwind label %lpad

invoke.cont:                                      ; preds = %delete.end
  invoke void @_ZN9grpc_core12experimental19AuditLoggerRegistryC1Ev(ptr noundef nonnull align 8 dereferenceable(48) %call)
          to label %invoke.cont2 unwind label %lpad1

invoke.cont2:                                     ; preds = %invoke.cont
  store ptr %call, ptr @_ZN9grpc_core12experimental19AuditLoggerRegistry8registryE, align 8
  invoke void @_ZN4absl12lts_202308025Mutex6UnlockEv(ptr noundef nonnull align 8 dereferenceable(8) %0)
          to label %_ZN4absl12lts_202308029MutexLockD2Ev.exit unwind label %terminate.lpad.i

terminate.lpad.i:                                 ; preds = %invoke.cont2
  %5 = landingpad { ptr, i32 }
          catch ptr null
  %6 = extractvalue { ptr, i32 } %5, 0
  tail call void @__clang_call_terminate(ptr %6) #19
  unreachable

_ZN4absl12lts_202308029MutexLockD2Ev.exit:        ; preds = %invoke.cont2
  ret void

lpad:                                             ; preds = %delete.end
  %7 = landingpad { ptr, i32 }
          cleanup
  br label %ehcleanup

lpad1:                                            ; preds = %invoke.cont
  %8 = landingpad { ptr, i32 }
          cleanup
  tail call void @_ZdlPv(ptr noundef nonnull %call) #20
  br label %ehcleanup

ehcleanup:                                        ; preds = %lpad1, %lpad
  %.pn = phi { ptr, i32 } [ %8, %lpad1 ], [ %7, %lpad ]
  invoke void @_ZN4absl12lts_202308025Mutex6UnlockEv(ptr noundef nonnull align 8 dereferenceable(8) %0)
          to label %_ZN4absl12lts_202308029MutexLockD2Ev.exit3 unwind label %terminate.lpad.i2

terminate.lpad.i2:                                ; preds = %ehcleanup
  %9 = landingpad { ptr, i32 }
          catch ptr null
  %10 = extractvalue { ptr, i32 } %9, 0
  tail call void @__clang_call_terminate(ptr %10) #19
  unreachable

_ZN4absl12lts_202308029MutexLockD2Ev.exit3:       ; preds = %ehcleanup
  resume { ptr, i32 } %.pn
}